   1               		.file	"main.cpp"
   2               	__SP_H__ = 0x3e
   3               	__SP_L__ = 0x3d
   4               	__SREG__ = 0x3f
   5               	__tmp_reg__ = 0
   6               	__zero_reg__ = 1
   7               		.text
   8               	.Ltext0:
   9               		.cfi_sections	.debug_frame
  10               		.section	.rodata.str1.1,"aMS",@progbits,1
  11               	.LC0:
  12 0000 4341 4E20 		.string	"CAN Projekt LED Controller"
  12      5072 6F6A 
  12      656B 7420 
  12      4C45 4420 
  12      436F 6E74 
  13               	.LC1:
  14 001b 0A0D 00   		.string	"\n\r"
  15               	.LC2:
  16 001e 4765 6265 		.string	"Gebe die Adresse des Empf\303\244nger Boards an 0x01 = Board[1] 0x2 = Board[2] !"
  16      2064 6965 
  16      2041 6472 
  16      6573 7365 
  16      2064 6573 
  17               	.LC3:
  18 0069 4765 6265 		.string	"Gebe an welche LEDs angesteuert werden sollen 0 == LED1 an/aus !"
  18      2061 6E20 
  18      7765 6C63 
  18      6865 204C 
  18      4544 7320 
  19               		.section	.text.startup,"ax",@progbits
  20               	.global	main
  22               	main:
  23               	.LFB15:
  24               		.file 1 "main.cpp"
   1:main.cpp      **** #include <avr/io.h>
   2:main.cpp      **** #include <util/delay.h>
   3:main.cpp      **** #include <stdio.h>
   4:main.cpp      **** 
   5:main.cpp      **** #include "ATMega32_utility_bib.h"
   6:main.cpp      **** 
   7:main.cpp      **** 
   8:main.cpp      **** //#define debug // Ausgabe der Botschaften
   9:main.cpp      **** 
  10:main.cpp      **** #define adress 0x02 // Eigene eindeutige Adresse des RNControl Boards
  11:main.cpp      **** 
  12:main.cpp      **** Button B;
  13:main.cpp      **** uint8_t cnt=0;
  14:main.cpp      **** 
  15:main.cpp      **** CAN can(BITRATE_500_KBPS);
  16:main.cpp      **** CAN_MSG sendmsg_Button;		// Message-Objekt auf dem Stack anlegen
  17:main.cpp      **** CAN_MSG resvmsg;		// Message-Objekt auf dem Stack anlegen
  18:main.cpp      **** 
  19:main.cpp      **** USART UART(8,0,1,9600);	// USART init 8 Zeichenbits , keien Paritätsbits , 1 Stoppbit, 9600 Zeiche
  20:main.cpp      **** char buffer[150];		// Buffer zur Zwschischenspeicherung von Zeichenketten
  21:main.cpp      **** 
  22:main.cpp      **** int main ()
  23:main.cpp      **** {
  25               		.loc 1 23 1 view -0
  26               		.cfi_startproc
  27 0000 CDB7      		in r28,__SP_L__
  28 0002 DEB7      		in r29,__SP_H__
  29               	.LCFI0:
  30               		.cfi_def_cfa_register 28
  31 0004 2D97      		sbiw r28,13
  32               	.LCFI1:
  33               		.cfi_def_cfa_offset 15
  34 0006 0FB6      		in __tmp_reg__,__SREG__
  35 0008 F894      		cli
  36 000a DEBF      		out __SP_H__,r29
  37 000c 0FBE      		out __SREG__,__tmp_reg__
  38 000e CDBF      		out __SP_L__,r28
  39               	/* prologue: function */
  40               	/* frame size = 13 */
  41               	/* stack size = 13 */
  42               	.L__stack_usage = 13
  24:main.cpp      **** 	DDRC = 0xFF;			// LED-Port: output
  43               		.loc 1 24 2 view .LVU1
  44               		.loc 1 24 7 is_stmt 0 view .LVU2
  45 0010 8FEF      		ldi r24,lo8(-1)
  46 0012 84BB      		out 0x14,r24
  25:main.cpp      **** 	PORTC = 0x00;			// LEDs ein
  47               		.loc 1 25 2 is_stmt 1 view .LVU3
  48               		.loc 1 25 8 is_stmt 0 view .LVU4
  49 0014 15BA      		out 0x15,__zero_reg__
  26:main.cpp      ****     _delay_ms(500);
  50               		.loc 1 26 5 is_stmt 1 view .LVU5
  51               	.LVL0:
  52               	.LBB27:
  53               	.LBI27:
  54               		.file 2 "/opt/homebrew/Cellar/avr-gcc@9/9.3.0_3/avr/include/util/delay.h"
   1:/opt/homebrew/Cellar/avr-gcc@9/9.3.0_3/avr/include/util/delay.h **** /* Copyright (c) 2002, Marek Michalkiewicz
   2:/opt/homebrew/Cellar/avr-gcc@9/9.3.0_3/avr/include/util/delay.h ****    Copyright (c) 2004,2005,2007 Joerg Wunsch
   3:/opt/homebrew/Cellar/avr-gcc@9/9.3.0_3/avr/include/util/delay.h ****    Copyright (c) 2007  Florin-Viorel Petrov
   4:/opt/homebrew/Cellar/avr-gcc@9/9.3.0_3/avr/include/util/delay.h ****    All rights reserved.
   5:/opt/homebrew/Cellar/avr-gcc@9/9.3.0_3/avr/include/util/delay.h **** 
   6:/opt/homebrew/Cellar/avr-gcc@9/9.3.0_3/avr/include/util/delay.h ****    Redistribution and use in source and binary forms, with or without
   7:/opt/homebrew/Cellar/avr-gcc@9/9.3.0_3/avr/include/util/delay.h ****    modification, are permitted provided that the following conditions are met:
   8:/opt/homebrew/Cellar/avr-gcc@9/9.3.0_3/avr/include/util/delay.h **** 
   9:/opt/homebrew/Cellar/avr-gcc@9/9.3.0_3/avr/include/util/delay.h ****    * Redistributions of source code must retain the above copyright
  10:/opt/homebrew/Cellar/avr-gcc@9/9.3.0_3/avr/include/util/delay.h ****      notice, this list of conditions and the following disclaimer.
  11:/opt/homebrew/Cellar/avr-gcc@9/9.3.0_3/avr/include/util/delay.h **** 
  12:/opt/homebrew/Cellar/avr-gcc@9/9.3.0_3/avr/include/util/delay.h ****    * Redistributions in binary form must reproduce the above copyright
  13:/opt/homebrew/Cellar/avr-gcc@9/9.3.0_3/avr/include/util/delay.h ****      notice, this list of conditions and the following disclaimer in
  14:/opt/homebrew/Cellar/avr-gcc@9/9.3.0_3/avr/include/util/delay.h ****      the documentation and/or other materials provided with the
  15:/opt/homebrew/Cellar/avr-gcc@9/9.3.0_3/avr/include/util/delay.h ****      distribution.
  16:/opt/homebrew/Cellar/avr-gcc@9/9.3.0_3/avr/include/util/delay.h **** 
  17:/opt/homebrew/Cellar/avr-gcc@9/9.3.0_3/avr/include/util/delay.h ****    * Neither the name of the copyright holders nor the names of
  18:/opt/homebrew/Cellar/avr-gcc@9/9.3.0_3/avr/include/util/delay.h ****      contributors may be used to endorse or promote products derived
  19:/opt/homebrew/Cellar/avr-gcc@9/9.3.0_3/avr/include/util/delay.h ****      from this software without specific prior written permission.
  20:/opt/homebrew/Cellar/avr-gcc@9/9.3.0_3/avr/include/util/delay.h **** 
  21:/opt/homebrew/Cellar/avr-gcc@9/9.3.0_3/avr/include/util/delay.h ****   THIS SOFTWARE IS PROVIDED BY THE COPYRIGHT HOLDERS AND CONTRIBUTORS "AS IS"
  22:/opt/homebrew/Cellar/avr-gcc@9/9.3.0_3/avr/include/util/delay.h ****   AND ANY EXPRESS OR IMPLIED WARRANTIES, INCLUDING, BUT NOT LIMITED TO, THE
  23:/opt/homebrew/Cellar/avr-gcc@9/9.3.0_3/avr/include/util/delay.h ****   IMPLIED WARRANTIES OF MERCHANTABILITY AND FITNESS FOR A PARTICULAR PURPOSE
  24:/opt/homebrew/Cellar/avr-gcc@9/9.3.0_3/avr/include/util/delay.h ****   ARE DISCLAIMED. IN NO EVENT SHALL THE COPYRIGHT OWNER OR CONTRIBUTORS BE
  25:/opt/homebrew/Cellar/avr-gcc@9/9.3.0_3/avr/include/util/delay.h ****   LIABLE FOR ANY DIRECT, INDIRECT, INCIDENTAL, SPECIAL, EXEMPLARY, OR
  26:/opt/homebrew/Cellar/avr-gcc@9/9.3.0_3/avr/include/util/delay.h ****   CONSEQUENTIAL DAMAGES (INCLUDING, BUT NOT LIMITED TO, PROCUREMENT OF
  27:/opt/homebrew/Cellar/avr-gcc@9/9.3.0_3/avr/include/util/delay.h ****   SUBSTITUTE GOODS OR SERVICES; LOSS OF USE, DATA, OR PROFITS; OR BUSINESS
  28:/opt/homebrew/Cellar/avr-gcc@9/9.3.0_3/avr/include/util/delay.h ****   INTERRUPTION) HOWEVER CAUSED AND ON ANY THEORY OF LIABILITY, WHETHER IN
  29:/opt/homebrew/Cellar/avr-gcc@9/9.3.0_3/avr/include/util/delay.h ****   CONTRACT, STRICT LIABILITY, OR TORT (INCLUDING NEGLIGENCE OR OTHERWISE)
  30:/opt/homebrew/Cellar/avr-gcc@9/9.3.0_3/avr/include/util/delay.h ****   ARISING IN ANY WAY OUT OF THE USE OF THIS SOFTWARE, EVEN IF ADVISED OF THE
  31:/opt/homebrew/Cellar/avr-gcc@9/9.3.0_3/avr/include/util/delay.h ****   POSSIBILITY OF SUCH DAMAGE. */
  32:/opt/homebrew/Cellar/avr-gcc@9/9.3.0_3/avr/include/util/delay.h **** 
  33:/opt/homebrew/Cellar/avr-gcc@9/9.3.0_3/avr/include/util/delay.h **** /* $Id: delay.h.in 2506 2016-02-08 10:05:45Z joerg_wunsch $ */
  34:/opt/homebrew/Cellar/avr-gcc@9/9.3.0_3/avr/include/util/delay.h **** 
  35:/opt/homebrew/Cellar/avr-gcc@9/9.3.0_3/avr/include/util/delay.h **** #ifndef _UTIL_DELAY_H_
  36:/opt/homebrew/Cellar/avr-gcc@9/9.3.0_3/avr/include/util/delay.h **** #define _UTIL_DELAY_H_ 1
  37:/opt/homebrew/Cellar/avr-gcc@9/9.3.0_3/avr/include/util/delay.h **** 
  38:/opt/homebrew/Cellar/avr-gcc@9/9.3.0_3/avr/include/util/delay.h **** #ifndef __DOXYGEN__
  39:/opt/homebrew/Cellar/avr-gcc@9/9.3.0_3/avr/include/util/delay.h **** #  ifndef __HAS_DELAY_CYCLES
  40:/opt/homebrew/Cellar/avr-gcc@9/9.3.0_3/avr/include/util/delay.h **** #    define __HAS_DELAY_CYCLES 1
  41:/opt/homebrew/Cellar/avr-gcc@9/9.3.0_3/avr/include/util/delay.h **** #  endif
  42:/opt/homebrew/Cellar/avr-gcc@9/9.3.0_3/avr/include/util/delay.h **** #endif  /* __DOXYGEN__ */
  43:/opt/homebrew/Cellar/avr-gcc@9/9.3.0_3/avr/include/util/delay.h **** 
  44:/opt/homebrew/Cellar/avr-gcc@9/9.3.0_3/avr/include/util/delay.h **** #include <inttypes.h>
  45:/opt/homebrew/Cellar/avr-gcc@9/9.3.0_3/avr/include/util/delay.h **** #include <util/delay_basic.h>
  46:/opt/homebrew/Cellar/avr-gcc@9/9.3.0_3/avr/include/util/delay.h **** #include <math.h>
  47:/opt/homebrew/Cellar/avr-gcc@9/9.3.0_3/avr/include/util/delay.h **** 
  48:/opt/homebrew/Cellar/avr-gcc@9/9.3.0_3/avr/include/util/delay.h **** /** \file */
  49:/opt/homebrew/Cellar/avr-gcc@9/9.3.0_3/avr/include/util/delay.h **** /** \defgroup util_delay <util/delay.h>: Convenience functions for busy-wait delay loops
  50:/opt/homebrew/Cellar/avr-gcc@9/9.3.0_3/avr/include/util/delay.h ****     \code
  51:/opt/homebrew/Cellar/avr-gcc@9/9.3.0_3/avr/include/util/delay.h ****     #define F_CPU 1000000UL  // 1 MHz
  52:/opt/homebrew/Cellar/avr-gcc@9/9.3.0_3/avr/include/util/delay.h ****     //#define F_CPU 14.7456E6
  53:/opt/homebrew/Cellar/avr-gcc@9/9.3.0_3/avr/include/util/delay.h ****     #include <util/delay.h>
  54:/opt/homebrew/Cellar/avr-gcc@9/9.3.0_3/avr/include/util/delay.h ****     \endcode
  55:/opt/homebrew/Cellar/avr-gcc@9/9.3.0_3/avr/include/util/delay.h **** 
  56:/opt/homebrew/Cellar/avr-gcc@9/9.3.0_3/avr/include/util/delay.h ****     \note As an alternative method, it is possible to pass the
  57:/opt/homebrew/Cellar/avr-gcc@9/9.3.0_3/avr/include/util/delay.h ****     F_CPU macro down to the compiler from the Makefile.
  58:/opt/homebrew/Cellar/avr-gcc@9/9.3.0_3/avr/include/util/delay.h ****     Obviously, in that case, no \c \#define statement should be
  59:/opt/homebrew/Cellar/avr-gcc@9/9.3.0_3/avr/include/util/delay.h ****     used.
  60:/opt/homebrew/Cellar/avr-gcc@9/9.3.0_3/avr/include/util/delay.h **** 
  61:/opt/homebrew/Cellar/avr-gcc@9/9.3.0_3/avr/include/util/delay.h ****     The functions in this header file are wrappers around the basic
  62:/opt/homebrew/Cellar/avr-gcc@9/9.3.0_3/avr/include/util/delay.h ****     busy-wait functions from <util/delay_basic.h>.  They are meant as
  63:/opt/homebrew/Cellar/avr-gcc@9/9.3.0_3/avr/include/util/delay.h ****     convenience functions where actual time values can be specified
  64:/opt/homebrew/Cellar/avr-gcc@9/9.3.0_3/avr/include/util/delay.h ****     rather than a number of cycles to wait for.  The idea behind is
  65:/opt/homebrew/Cellar/avr-gcc@9/9.3.0_3/avr/include/util/delay.h ****     that compile-time constant expressions will be eliminated by
  66:/opt/homebrew/Cellar/avr-gcc@9/9.3.0_3/avr/include/util/delay.h ****     compiler optimization so floating-point expressions can be used
  67:/opt/homebrew/Cellar/avr-gcc@9/9.3.0_3/avr/include/util/delay.h ****     to calculate the number of delay cycles needed based on the CPU
  68:/opt/homebrew/Cellar/avr-gcc@9/9.3.0_3/avr/include/util/delay.h ****     frequency passed by the macro F_CPU.
  69:/opt/homebrew/Cellar/avr-gcc@9/9.3.0_3/avr/include/util/delay.h **** 
  70:/opt/homebrew/Cellar/avr-gcc@9/9.3.0_3/avr/include/util/delay.h ****     \note In order for these functions to work as intended, compiler
  71:/opt/homebrew/Cellar/avr-gcc@9/9.3.0_3/avr/include/util/delay.h ****     optimizations <em>must</em> be enabled, and the delay time
  72:/opt/homebrew/Cellar/avr-gcc@9/9.3.0_3/avr/include/util/delay.h ****     <em>must</em> be an expression that is a known constant at
  73:/opt/homebrew/Cellar/avr-gcc@9/9.3.0_3/avr/include/util/delay.h ****     compile-time.  If these requirements are not met, the resulting
  74:/opt/homebrew/Cellar/avr-gcc@9/9.3.0_3/avr/include/util/delay.h ****     delay will be much longer (and basically unpredictable), and
  75:/opt/homebrew/Cellar/avr-gcc@9/9.3.0_3/avr/include/util/delay.h ****     applications that otherwise do not use floating-point calculations
  76:/opt/homebrew/Cellar/avr-gcc@9/9.3.0_3/avr/include/util/delay.h ****     will experience severe code bloat by the floating-point library
  77:/opt/homebrew/Cellar/avr-gcc@9/9.3.0_3/avr/include/util/delay.h ****     routines linked into the application.
  78:/opt/homebrew/Cellar/avr-gcc@9/9.3.0_3/avr/include/util/delay.h **** 
  79:/opt/homebrew/Cellar/avr-gcc@9/9.3.0_3/avr/include/util/delay.h ****     The functions available allow the specification of microsecond, and
  80:/opt/homebrew/Cellar/avr-gcc@9/9.3.0_3/avr/include/util/delay.h ****     millisecond delays directly, using the application-supplied macro
  81:/opt/homebrew/Cellar/avr-gcc@9/9.3.0_3/avr/include/util/delay.h ****     F_CPU as the CPU clock frequency (in Hertz).
  82:/opt/homebrew/Cellar/avr-gcc@9/9.3.0_3/avr/include/util/delay.h **** 
  83:/opt/homebrew/Cellar/avr-gcc@9/9.3.0_3/avr/include/util/delay.h **** */
  84:/opt/homebrew/Cellar/avr-gcc@9/9.3.0_3/avr/include/util/delay.h **** 
  85:/opt/homebrew/Cellar/avr-gcc@9/9.3.0_3/avr/include/util/delay.h **** #if !defined(__DOXYGEN__)
  86:/opt/homebrew/Cellar/avr-gcc@9/9.3.0_3/avr/include/util/delay.h **** static __inline__ void _delay_us(double __us) __attribute__((__always_inline__));
  87:/opt/homebrew/Cellar/avr-gcc@9/9.3.0_3/avr/include/util/delay.h **** static __inline__ void _delay_ms(double __ms) __attribute__((__always_inline__));
  88:/opt/homebrew/Cellar/avr-gcc@9/9.3.0_3/avr/include/util/delay.h **** #endif
  89:/opt/homebrew/Cellar/avr-gcc@9/9.3.0_3/avr/include/util/delay.h **** 
  90:/opt/homebrew/Cellar/avr-gcc@9/9.3.0_3/avr/include/util/delay.h **** #ifndef F_CPU
  91:/opt/homebrew/Cellar/avr-gcc@9/9.3.0_3/avr/include/util/delay.h **** /* prevent compiler error by supplying a default */
  92:/opt/homebrew/Cellar/avr-gcc@9/9.3.0_3/avr/include/util/delay.h **** # warning "F_CPU not defined for <util/delay.h>"
  93:/opt/homebrew/Cellar/avr-gcc@9/9.3.0_3/avr/include/util/delay.h **** /** \ingroup util_delay
  94:/opt/homebrew/Cellar/avr-gcc@9/9.3.0_3/avr/include/util/delay.h ****     \def F_CPU
  95:/opt/homebrew/Cellar/avr-gcc@9/9.3.0_3/avr/include/util/delay.h ****     \brief CPU frequency in Hz
  96:/opt/homebrew/Cellar/avr-gcc@9/9.3.0_3/avr/include/util/delay.h **** 
  97:/opt/homebrew/Cellar/avr-gcc@9/9.3.0_3/avr/include/util/delay.h ****     The macro F_CPU specifies the CPU frequency to be considered by
  98:/opt/homebrew/Cellar/avr-gcc@9/9.3.0_3/avr/include/util/delay.h ****     the delay macros.  This macro is normally supplied by the
  99:/opt/homebrew/Cellar/avr-gcc@9/9.3.0_3/avr/include/util/delay.h ****     environment (e.g. from within a project header, or the project's
 100:/opt/homebrew/Cellar/avr-gcc@9/9.3.0_3/avr/include/util/delay.h ****     Makefile).  The value 1 MHz here is only provided as a "vanilla"
 101:/opt/homebrew/Cellar/avr-gcc@9/9.3.0_3/avr/include/util/delay.h ****     fallback if no such user-provided definition could be found.
 102:/opt/homebrew/Cellar/avr-gcc@9/9.3.0_3/avr/include/util/delay.h **** 
 103:/opt/homebrew/Cellar/avr-gcc@9/9.3.0_3/avr/include/util/delay.h ****     In terms of the delay functions, the CPU frequency can be given as
 104:/opt/homebrew/Cellar/avr-gcc@9/9.3.0_3/avr/include/util/delay.h ****     a floating-point constant (e.g. 3.6864E6 for 3.6864 MHz).
 105:/opt/homebrew/Cellar/avr-gcc@9/9.3.0_3/avr/include/util/delay.h ****     However, the macros in <util/setbaud.h> require it to be an
 106:/opt/homebrew/Cellar/avr-gcc@9/9.3.0_3/avr/include/util/delay.h ****     integer value.
 107:/opt/homebrew/Cellar/avr-gcc@9/9.3.0_3/avr/include/util/delay.h ****  */
 108:/opt/homebrew/Cellar/avr-gcc@9/9.3.0_3/avr/include/util/delay.h **** # define F_CPU 1000000UL
 109:/opt/homebrew/Cellar/avr-gcc@9/9.3.0_3/avr/include/util/delay.h **** #endif
 110:/opt/homebrew/Cellar/avr-gcc@9/9.3.0_3/avr/include/util/delay.h **** 
 111:/opt/homebrew/Cellar/avr-gcc@9/9.3.0_3/avr/include/util/delay.h **** #ifndef __OPTIMIZE__
 112:/opt/homebrew/Cellar/avr-gcc@9/9.3.0_3/avr/include/util/delay.h **** # warning "Compiler optimizations disabled; functions from <util/delay.h> won't work as designed"
 113:/opt/homebrew/Cellar/avr-gcc@9/9.3.0_3/avr/include/util/delay.h **** #endif
 114:/opt/homebrew/Cellar/avr-gcc@9/9.3.0_3/avr/include/util/delay.h **** 
 115:/opt/homebrew/Cellar/avr-gcc@9/9.3.0_3/avr/include/util/delay.h **** #if __HAS_DELAY_CYCLES && defined(__OPTIMIZE__) && \
 116:/opt/homebrew/Cellar/avr-gcc@9/9.3.0_3/avr/include/util/delay.h ****   !defined(__DELAY_BACKWARD_COMPATIBLE__) &&	   \
 117:/opt/homebrew/Cellar/avr-gcc@9/9.3.0_3/avr/include/util/delay.h ****   __STDC_HOSTED__
 118:/opt/homebrew/Cellar/avr-gcc@9/9.3.0_3/avr/include/util/delay.h **** #  include <math.h>
 119:/opt/homebrew/Cellar/avr-gcc@9/9.3.0_3/avr/include/util/delay.h **** #endif
 120:/opt/homebrew/Cellar/avr-gcc@9/9.3.0_3/avr/include/util/delay.h **** 
 121:/opt/homebrew/Cellar/avr-gcc@9/9.3.0_3/avr/include/util/delay.h **** /**
 122:/opt/homebrew/Cellar/avr-gcc@9/9.3.0_3/avr/include/util/delay.h ****    \ingroup util_delay
 123:/opt/homebrew/Cellar/avr-gcc@9/9.3.0_3/avr/include/util/delay.h **** 
 124:/opt/homebrew/Cellar/avr-gcc@9/9.3.0_3/avr/include/util/delay.h ****    Perform a delay of \c __ms milliseconds, using _delay_loop_2().
 125:/opt/homebrew/Cellar/avr-gcc@9/9.3.0_3/avr/include/util/delay.h **** 
 126:/opt/homebrew/Cellar/avr-gcc@9/9.3.0_3/avr/include/util/delay.h ****    The macro F_CPU is supposed to be defined to a
 127:/opt/homebrew/Cellar/avr-gcc@9/9.3.0_3/avr/include/util/delay.h ****    constant defining the CPU clock frequency (in Hertz).
 128:/opt/homebrew/Cellar/avr-gcc@9/9.3.0_3/avr/include/util/delay.h **** 
 129:/opt/homebrew/Cellar/avr-gcc@9/9.3.0_3/avr/include/util/delay.h ****    The maximal possible delay is 262.14 ms / F_CPU in MHz.
 130:/opt/homebrew/Cellar/avr-gcc@9/9.3.0_3/avr/include/util/delay.h **** 
 131:/opt/homebrew/Cellar/avr-gcc@9/9.3.0_3/avr/include/util/delay.h ****    When the user request delay which exceed the maximum possible one,
 132:/opt/homebrew/Cellar/avr-gcc@9/9.3.0_3/avr/include/util/delay.h ****    _delay_ms() provides a decreased resolution functionality. In this
 133:/opt/homebrew/Cellar/avr-gcc@9/9.3.0_3/avr/include/util/delay.h ****    mode _delay_ms() will work with a resolution of 1/10 ms, providing
 134:/opt/homebrew/Cellar/avr-gcc@9/9.3.0_3/avr/include/util/delay.h ****    delays up to 6.5535 seconds (independent from CPU frequency).  The
 135:/opt/homebrew/Cellar/avr-gcc@9/9.3.0_3/avr/include/util/delay.h ****    user will not be informed about decreased resolution.
 136:/opt/homebrew/Cellar/avr-gcc@9/9.3.0_3/avr/include/util/delay.h **** 
 137:/opt/homebrew/Cellar/avr-gcc@9/9.3.0_3/avr/include/util/delay.h ****    If the avr-gcc toolchain has __builtin_avr_delay_cycles()
 138:/opt/homebrew/Cellar/avr-gcc@9/9.3.0_3/avr/include/util/delay.h ****    support, maximal possible delay is 4294967.295 ms/ F_CPU in MHz. For
 139:/opt/homebrew/Cellar/avr-gcc@9/9.3.0_3/avr/include/util/delay.h ****    values greater than the maximal possible delay, overflows results in
 140:/opt/homebrew/Cellar/avr-gcc@9/9.3.0_3/avr/include/util/delay.h ****    no delay i.e., 0ms.
 141:/opt/homebrew/Cellar/avr-gcc@9/9.3.0_3/avr/include/util/delay.h **** 
 142:/opt/homebrew/Cellar/avr-gcc@9/9.3.0_3/avr/include/util/delay.h ****    Conversion of \c __ms into clock cycles may not always result in
 143:/opt/homebrew/Cellar/avr-gcc@9/9.3.0_3/avr/include/util/delay.h ****    integer.  By default, the clock cycles rounded up to next
 144:/opt/homebrew/Cellar/avr-gcc@9/9.3.0_3/avr/include/util/delay.h ****    integer. This ensures that the user gets at least \c __ms
 145:/opt/homebrew/Cellar/avr-gcc@9/9.3.0_3/avr/include/util/delay.h ****    microseconds of delay.
 146:/opt/homebrew/Cellar/avr-gcc@9/9.3.0_3/avr/include/util/delay.h **** 
 147:/opt/homebrew/Cellar/avr-gcc@9/9.3.0_3/avr/include/util/delay.h ****    Alternatively, by defining the macro \c __DELAY_ROUND_DOWN__, or
 148:/opt/homebrew/Cellar/avr-gcc@9/9.3.0_3/avr/include/util/delay.h ****    \c __DELAY_ROUND_CLOSEST__, before including this header file, the
 149:/opt/homebrew/Cellar/avr-gcc@9/9.3.0_3/avr/include/util/delay.h ****    algorithm can be made to round down, or round to closest integer,
 150:/opt/homebrew/Cellar/avr-gcc@9/9.3.0_3/avr/include/util/delay.h ****    respectively.
 151:/opt/homebrew/Cellar/avr-gcc@9/9.3.0_3/avr/include/util/delay.h **** 
 152:/opt/homebrew/Cellar/avr-gcc@9/9.3.0_3/avr/include/util/delay.h ****    \note
 153:/opt/homebrew/Cellar/avr-gcc@9/9.3.0_3/avr/include/util/delay.h **** 
 154:/opt/homebrew/Cellar/avr-gcc@9/9.3.0_3/avr/include/util/delay.h ****    The implementation of _delay_ms() based on
 155:/opt/homebrew/Cellar/avr-gcc@9/9.3.0_3/avr/include/util/delay.h ****    __builtin_avr_delay_cycles() is not backward compatible with older
 156:/opt/homebrew/Cellar/avr-gcc@9/9.3.0_3/avr/include/util/delay.h ****    implementations.  In order to get functionality backward compatible
 157:/opt/homebrew/Cellar/avr-gcc@9/9.3.0_3/avr/include/util/delay.h ****    with previous versions, the macro \c "__DELAY_BACKWARD_COMPATIBLE__"
 158:/opt/homebrew/Cellar/avr-gcc@9/9.3.0_3/avr/include/util/delay.h ****    must be defined before including this header file. Also, the
 159:/opt/homebrew/Cellar/avr-gcc@9/9.3.0_3/avr/include/util/delay.h ****    backward compatible algorithm will be chosen if the code is
 160:/opt/homebrew/Cellar/avr-gcc@9/9.3.0_3/avr/include/util/delay.h ****    compiled in a <em>freestanding environment</em> (GCC option
 161:/opt/homebrew/Cellar/avr-gcc@9/9.3.0_3/avr/include/util/delay.h ****    \c -ffreestanding), as the math functions required for rounding are
 162:/opt/homebrew/Cellar/avr-gcc@9/9.3.0_3/avr/include/util/delay.h ****    not available to the compiler then.
 163:/opt/homebrew/Cellar/avr-gcc@9/9.3.0_3/avr/include/util/delay.h **** 
 164:/opt/homebrew/Cellar/avr-gcc@9/9.3.0_3/avr/include/util/delay.h ****  */
 165:/opt/homebrew/Cellar/avr-gcc@9/9.3.0_3/avr/include/util/delay.h **** void
 166:/opt/homebrew/Cellar/avr-gcc@9/9.3.0_3/avr/include/util/delay.h **** _delay_ms(double __ms)
  55               		.loc 2 166 1 view .LVU6
  56               	.LBB28:
 167:/opt/homebrew/Cellar/avr-gcc@9/9.3.0_3/avr/include/util/delay.h **** {
 168:/opt/homebrew/Cellar/avr-gcc@9/9.3.0_3/avr/include/util/delay.h **** 	double __tmp ;
  57               		.loc 2 168 2 view .LVU7
 169:/opt/homebrew/Cellar/avr-gcc@9/9.3.0_3/avr/include/util/delay.h **** #if __HAS_DELAY_CYCLES && defined(__OPTIMIZE__) && \
 170:/opt/homebrew/Cellar/avr-gcc@9/9.3.0_3/avr/include/util/delay.h ****   !defined(__DELAY_BACKWARD_COMPATIBLE__) &&	   \
 171:/opt/homebrew/Cellar/avr-gcc@9/9.3.0_3/avr/include/util/delay.h ****   __STDC_HOSTED__
 172:/opt/homebrew/Cellar/avr-gcc@9/9.3.0_3/avr/include/util/delay.h **** 	uint32_t __ticks_dc;
  58               		.loc 2 172 2 view .LVU8
 173:/opt/homebrew/Cellar/avr-gcc@9/9.3.0_3/avr/include/util/delay.h **** 	extern void __builtin_avr_delay_cycles(unsigned long);
  59               		.loc 2 173 2 view .LVU9
 174:/opt/homebrew/Cellar/avr-gcc@9/9.3.0_3/avr/include/util/delay.h **** 	__tmp = ((F_CPU) / 1e3) * __ms;
  60               		.loc 2 174 2 view .LVU10
 175:/opt/homebrew/Cellar/avr-gcc@9/9.3.0_3/avr/include/util/delay.h **** 
 176:/opt/homebrew/Cellar/avr-gcc@9/9.3.0_3/avr/include/util/delay.h **** 	#if defined(__DELAY_ROUND_DOWN__)
 177:/opt/homebrew/Cellar/avr-gcc@9/9.3.0_3/avr/include/util/delay.h **** 		__ticks_dc = (uint32_t)fabs(__tmp);
 178:/opt/homebrew/Cellar/avr-gcc@9/9.3.0_3/avr/include/util/delay.h **** 
 179:/opt/homebrew/Cellar/avr-gcc@9/9.3.0_3/avr/include/util/delay.h **** 	#elif defined(__DELAY_ROUND_CLOSEST__)
 180:/opt/homebrew/Cellar/avr-gcc@9/9.3.0_3/avr/include/util/delay.h **** 		__ticks_dc = (uint32_t)(fabs(__tmp)+0.5);
 181:/opt/homebrew/Cellar/avr-gcc@9/9.3.0_3/avr/include/util/delay.h **** 
 182:/opt/homebrew/Cellar/avr-gcc@9/9.3.0_3/avr/include/util/delay.h **** 	#else
 183:/opt/homebrew/Cellar/avr-gcc@9/9.3.0_3/avr/include/util/delay.h **** 		//round up by default
 184:/opt/homebrew/Cellar/avr-gcc@9/9.3.0_3/avr/include/util/delay.h **** 		__ticks_dc = (uint32_t)(ceil(fabs(__tmp)));
  61               		.loc 2 184 3 view .LVU11
 185:/opt/homebrew/Cellar/avr-gcc@9/9.3.0_3/avr/include/util/delay.h **** 	#endif
 186:/opt/homebrew/Cellar/avr-gcc@9/9.3.0_3/avr/include/util/delay.h **** 
 187:/opt/homebrew/Cellar/avr-gcc@9/9.3.0_3/avr/include/util/delay.h **** 	__builtin_avr_delay_cycles(__ticks_dc);
  62               		.loc 2 187 2 view .LVU12
  63               		.loc 2 187 28 is_stmt 0 view .LVU13
  64 0016 2FEF      		ldi r18,lo8(1599999)
  65 0018 39E6      		ldi r19,hi8(1599999)
  66 001a 98E1      		ldi r25,hlo8(1599999)
  67 001c 2150      	1:	subi r18,1
  68 001e 3040      		sbci r19,0
  69 0020 9040      		sbci r25,0
  70 0022 01F4      		brne 1b
  71 0024 00C0      		rjmp .
  72 0026 0000      		nop
  73               	.LVL1:
  74               		.loc 2 187 28 view .LVU14
  75               	.LBE28:
  76               	.LBE27:
  27:main.cpp      ****     PORTC = 0xFF;            // LEDs aus
  77               		.loc 1 27 5 is_stmt 1 view .LVU15
  78               		.loc 1 27 11 is_stmt 0 view .LVU16
  79 0028 85BB      		out 0x15,r24
  28:main.cpp      ****     
  29:main.cpp      **** 	
  30:main.cpp      ****    	CAN_MSG sendmsg_LED;          // Message-Objekt auf dem Stack anlegen
  80               		.loc 1 30 5 is_stmt 1 view .LVU17
  81               	.LVL2:
  82               	.LBB29:
  83               	.LBI29:
  84               		.file 3 "ATMega32_utility_bib.h"
   1:ATMega32_utility_bib.h **** /*
   2:ATMega32_utility_bib.h ****  * ATMega32_utility_bib.h
   3:ATMega32_utility_bib.h ****  *
   4:ATMega32_utility_bib.h ****  * Created: 24.08.2020
   5:ATMega32_utility_bib.h ****  *  Author: J-H. Aschen
   6:ATMega32_utility_bib.h ****  */ 
   7:ATMega32_utility_bib.h **** 
   8:ATMega32_utility_bib.h **** 
   9:ATMega32_utility_bib.h **** #ifndef ATMEGA32_UTILITY_BIB_H
  10:ATMega32_utility_bib.h **** #define ATMEGA32_UTILITY_BIB_H
  11:ATMega32_utility_bib.h **** 
  12:ATMega32_utility_bib.h **** 
  13:ATMega32_utility_bib.h **** // Bibliotheken includierden
  14:ATMega32_utility_bib.h **** #include <avr/interrupt.h>
  15:ATMega32_utility_bib.h **** #include <util/delay.h>
  16:ATMega32_utility_bib.h **** #include <avr/io.h>
  17:ATMega32_utility_bib.h **** #include <stdio.h>
  18:ATMega32_utility_bib.h **** #include <stdlib.h>
  19:ATMega32_utility_bib.h **** #include <string.h>
  20:ATMega32_utility_bib.h **** #include "can.h"
  21:ATMega32_utility_bib.h **** 
  22:ATMega32_utility_bib.h **** 
  23:ATMega32_utility_bib.h **** 
  24:ATMega32_utility_bib.h **** // Makro definitionen
  25:ATMega32_utility_bib.h **** #define CLR_LED(REG,BIT)  REG |= (1<<BIT)  // LED ausschalten
  26:ATMega32_utility_bib.h **** #define SET_LED(REG,BIT)  REG &= ~(1<<BIT)  // LED einschalten
  27:ATMega32_utility_bib.h **** 
  28:ATMega32_utility_bib.h **** #define SET_BIT(REG,BIT)     REG  |=  (1<<BIT)        /* Setzen        des Bits BIT in Register REG
  29:ATMega32_utility_bib.h **** #define CLR_BIT(REG,BIT)     REG  &= ~(1<<BIT)        /* Löschen       des Bits BIT in Register RE
  30:ATMega32_utility_bib.h **** #define TGL_BIT(REG,BIT)     REG  ^=  (1<<BIT)        /* Komplemtieren des Bits BIT in Register REG
  31:ATMega32_utility_bib.h **** #define BIT_IS_SET(REG,BIT)  ((REG & (1<<BIT)) != 0)  /* Testen, ob das Bits BIT in Register REG ge
  32:ATMega32_utility_bib.h **** #define BIT_IS_CLR(REG,BIT)  ((REG & (1<<BIT)) == 0)  /* Testen, ob das Bits BIT in Register REG ge
  33:ATMega32_utility_bib.h **** 
  34:ATMega32_utility_bib.h **** //USART Parität
  35:ATMega32_utility_bib.h **** #define USART_EVEN_PARITY 1
  36:ATMega32_utility_bib.h **** #define USART_ODD_PARITY 2
  37:ATMega32_utility_bib.h **** 
  38:ATMega32_utility_bib.h **** #define LED_DDR DDRC
  39:ATMega32_utility_bib.h **** #define LED_PORT PORTC
  40:ATMega32_utility_bib.h **** 
  41:ATMega32_utility_bib.h **** // CAN-INIT und Senden/ Empfang von Botschaften
  42:ATMega32_utility_bib.h **** struct CAN_MSG
  85               		.loc 3 42 8 view .LVU18
  86               	.LBB30:
  87 002a 1C86      		std Y+12,__zero_reg__
  88               	.LVL3:
  89               		.loc 3 42 8 is_stmt 0 view .LVU19
  90               	.LBE30:
  91               	.LBE29:
  31:main.cpp      **** 	
  32:main.cpp      ****         sendmsg_LED.id = 0x74;          // ID setzen, hier: dec
  92               		.loc 1 32 9 is_stmt 1 view .LVU20
  93               		.loc 1 32 24 is_stmt 0 view .LVU21
  94 002c 84E7      		ldi r24,lo8(116)
  95 002e 90E0      		ldi r25,0
  96 0030 9A87      		std Y+10,r25
  97 0032 8987      		std Y+9,r24
  33:main.cpp      ****         sendmsg_LED.rtr = 0;      // Remote-Transmission-Request -> aus
  98               		.loc 1 33 9 is_stmt 1 view .LVU22
  34:main.cpp      ****         sendmsg_LED.dlc = 2;         // Länge der Nachricht: 2 Byte
  99               		.loc 1 34 9 view .LVU23
 100               		.loc 1 34 25 is_stmt 0 view .LVU24
 101 0034 82E0      		ldi r24,lo8(2)
 102 0036 8B87      		std Y+11,r24
  35:main.cpp      **** 	
  36:main.cpp      **** 	sprintf(buffer,"CAN Projekt LED Controller");	// Zeichenkette erzeugen und in dn Zwischenspeicher 
 103               		.loc 1 36 2 is_stmt 1 view .LVU25
 104               		.loc 1 36 9 is_stmt 0 view .LVU26
 105 0038 60E0      		ldi r22,lo8(.LC0)
 106 003a 70E0      		ldi r23,hi8(.LC0)
 107 003c 80E0      		ldi r24,lo8(buffer)
 108 003e 90E0      		ldi r25,hi8(buffer)
 109 0040 0E94 0000 		call strcpy
 110               	.LVL4:
  37:main.cpp      **** 	UART.UsartPuts(buffer);		   // Ausgeben
 111               		.loc 1 37 2 is_stmt 1 view .LVU27
 112               		.loc 1 37 16 is_stmt 0 view .LVU28
 113 0044 60E0      		ldi r22,lo8(buffer)
 114 0046 70E0      		ldi r23,hi8(buffer)
 115 0048 80E0      		ldi r24,lo8(UART)
 116 004a 90E0      		ldi r25,hi8(UART)
 117 004c 0E94 0000 		call _ZN5USART9UsartPutsEPc
 118               	.LVL5:
  38:main.cpp      **** 	UART.UsartPuts("\n\r");		   // Neue Zeile
 119               		.loc 1 38 2 is_stmt 1 view .LVU29
 120               		.loc 1 38 16 is_stmt 0 view .LVU30
 121 0050 60E0      		ldi r22,lo8(.LC1)
 122 0052 70E0      		ldi r23,hi8(.LC1)
 123 0054 80E0      		ldi r24,lo8(UART)
 124 0056 90E0      		ldi r25,hi8(UART)
 125 0058 0E94 0000 		call _ZN5USART9UsartPutsEPc
 126               	.LVL6:
  39:main.cpp      **** 	UART.UsartPuts("\n\r");		   // Neue Zeile
 127               		.loc 1 39 2 is_stmt 1 view .LVU31
 128               		.loc 1 39 16 is_stmt 0 view .LVU32
 129 005c 60E0      		ldi r22,lo8(.LC1)
 130 005e 70E0      		ldi r23,hi8(.LC1)
 131 0060 80E0      		ldi r24,lo8(UART)
 132 0062 90E0      		ldi r25,hi8(UART)
 133 0064 0E94 0000 		call _ZN5USART9UsartPutsEPc
 134               	.LVL7:
  40:main.cpp      **** 	_delay_ms(500);
 135               		.loc 1 40 2 is_stmt 1 view .LVU33
 136               	.LBB31:
 137               	.LBI31:
 166:/opt/homebrew/Cellar/avr-gcc@9/9.3.0_3/avr/include/util/delay.h **** {
 138               		.loc 2 166 1 view .LVU34
 139               	.LBB32:
 168:/opt/homebrew/Cellar/avr-gcc@9/9.3.0_3/avr/include/util/delay.h **** #if __HAS_DELAY_CYCLES && defined(__OPTIMIZE__) && \
 140               		.loc 2 168 2 view .LVU35
 172:/opt/homebrew/Cellar/avr-gcc@9/9.3.0_3/avr/include/util/delay.h **** 	extern void __builtin_avr_delay_cycles(unsigned long);
 141               		.loc 2 172 2 view .LVU36
 173:/opt/homebrew/Cellar/avr-gcc@9/9.3.0_3/avr/include/util/delay.h **** 	__tmp = ((F_CPU) / 1e3) * __ms;
 142               		.loc 2 173 2 view .LVU37
 174:/opt/homebrew/Cellar/avr-gcc@9/9.3.0_3/avr/include/util/delay.h **** 
 143               		.loc 2 174 2 view .LVU38
 184:/opt/homebrew/Cellar/avr-gcc@9/9.3.0_3/avr/include/util/delay.h **** 	#endif
 144               		.loc 2 184 3 view .LVU39
 145               		.loc 2 187 2 view .LVU40
 146               		.loc 2 187 28 is_stmt 0 view .LVU41
 147 0068 2FEF      		ldi r18,lo8(1599999)
 148 006a 39E6      		ldi r19,hi8(1599999)
 149 006c 88E1      		ldi r24,hlo8(1599999)
 150 006e 2150      	1:	subi r18,1
 151 0070 3040      		sbci r19,0
 152 0072 8040      		sbci r24,0
 153 0074 01F4      		brne 1b
 154 0076 00C0      		rjmp .
 155 0078 0000      		nop
 156               	.LVL8:
 157               		.loc 2 187 28 view .LVU42
 158               	.LBE32:
 159               	.LBE31:
  41:main.cpp      **** 	
  42:main.cpp      **** 
  43:main.cpp      **** 	Timer T; 
 160               		.loc 1 43 2 is_stmt 1 view .LVU43
 161               		.loc 1 43 8 is_stmt 0 view .LVU44
 162 007a CE01      		movw r24,r28
 163 007c 0D96      		adiw r24,13
 164 007e 0E94 0000 		call _ZN5TimerC1Ev
 165               	.LVL9:
  44:main.cpp      **** 	T.Timer_0_Compare_ISR_init(); // Timer ISR 1ms
 166               		.loc 1 44 2 is_stmt 1 view .LVU45
 167               		.loc 1 44 28 is_stmt 0 view .LVU46
 168 0082 CE01      		movw r24,r28
 169 0084 0D96      		adiw r24,13
 170 0086 0E94 0000 		call _ZN5Timer24Timer_0_Compare_ISR_initEv
 171               	.LVL10:
 172               	.L2:
  45:main.cpp      **** 	
  46:main.cpp      **** 	
  47:main.cpp      **** 	for (;;)
 173               		.loc 1 47 2 is_stmt 1 discriminator 1 view .LVU47
  48:main.cpp      **** 	{
  49:main.cpp      **** 		
  50:main.cpp      **** 		sprintf(buffer,"Gebe die Adresse des Empfänger Boards an 0x01 = Board[1] 0x2 = Board[2] !");	// 
 174               		.loc 1 50 3 discriminator 1 view .LVU48
 175               		.loc 1 50 10 is_stmt 0 discriminator 1 view .LVU49
 176 008a 60E0      		ldi r22,lo8(.LC2)
 177 008c 70E0      		ldi r23,hi8(.LC2)
 178 008e 80E0      		ldi r24,lo8(buffer)
 179 0090 90E0      		ldi r25,hi8(buffer)
 180 0092 0E94 0000 		call strcpy
 181               	.LVL11:
  51:main.cpp      **** 		UART.UsartPuts(buffer);		   // Ausgeben
 182               		.loc 1 51 3 is_stmt 1 discriminator 1 view .LVU50
 183               		.loc 1 51 17 is_stmt 0 discriminator 1 view .LVU51
 184 0096 60E0      		ldi r22,lo8(buffer)
 185 0098 70E0      		ldi r23,hi8(buffer)
 186 009a 80E0      		ldi r24,lo8(UART)
 187 009c 90E0      		ldi r25,hi8(UART)
 188 009e 0E94 0000 		call _ZN5USART9UsartPutsEPc
 189               	.LVL12:
  52:main.cpp      **** 		UART.UsartPuts("\n\r");		   // Neue Zeile
 190               		.loc 1 52 3 is_stmt 1 discriminator 1 view .LVU52
 191               		.loc 1 52 17 is_stmt 0 discriminator 1 view .LVU53
 192 00a2 60E0      		ldi r22,lo8(.LC1)
 193 00a4 70E0      		ldi r23,hi8(.LC1)
 194 00a6 80E0      		ldi r24,lo8(UART)
 195 00a8 90E0      		ldi r25,hi8(UART)
 196 00aa 0E94 0000 		call _ZN5USART9UsartPutsEPc
 197               	.LVL13:
  53:main.cpp      **** 		sendmsg_LED.data[0] = (UART.UsartGetc()-0x30); // ASCII in Dez
 198               		.loc 1 53 3 is_stmt 1 discriminator 1 view .LVU54
 199               		.loc 1 53 40 is_stmt 0 discriminator 1 view .LVU55
 200 00ae 80E0      		ldi r24,lo8(UART)
 201 00b0 90E0      		ldi r25,hi8(UART)
 202 00b2 0E94 0000 		call _ZN5USART9UsartGetcEv
 203               	.LVL14:
 204               		.loc 1 53 42 discriminator 1 view .LVU56
 205 00b6 8053      		subi r24,lo8(-(-48))
 206               		.loc 1 53 23 discriminator 1 view .LVU57
 207 00b8 8983      		std Y+1,r24
  54:main.cpp      **** 		// Prüfung auf Gültigkeit fehlt nur 1-4 oder so
  55:main.cpp      **** 		sprintf(buffer,"Gebe an welche LEDs angesteuert werden sollen 0 == LED1 an/aus !");	// Zeichenket
 208               		.loc 1 55 3 is_stmt 1 discriminator 1 view .LVU58
 209               		.loc 1 55 10 is_stmt 0 discriminator 1 view .LVU59
 210 00ba 60E0      		ldi r22,lo8(.LC3)
 211 00bc 70E0      		ldi r23,hi8(.LC3)
 212 00be 80E0      		ldi r24,lo8(buffer)
 213 00c0 90E0      		ldi r25,hi8(buffer)
 214 00c2 0E94 0000 		call strcpy
 215               	.LVL15:
  56:main.cpp      **** 		UART.UsartPuts(buffer);		   // Ausgeben
 216               		.loc 1 56 3 is_stmt 1 discriminator 1 view .LVU60
 217               		.loc 1 56 17 is_stmt 0 discriminator 1 view .LVU61
 218 00c6 60E0      		ldi r22,lo8(buffer)
 219 00c8 70E0      		ldi r23,hi8(buffer)
 220 00ca 80E0      		ldi r24,lo8(UART)
 221 00cc 90E0      		ldi r25,hi8(UART)
 222 00ce 0E94 0000 		call _ZN5USART9UsartPutsEPc
 223               	.LVL16:
  57:main.cpp      **** 		UART.UsartPuts("\n\r");		   // Neue Zeile
 224               		.loc 1 57 3 is_stmt 1 discriminator 1 view .LVU62
 225               		.loc 1 57 17 is_stmt 0 discriminator 1 view .LVU63
 226 00d2 60E0      		ldi r22,lo8(.LC1)
 227 00d4 70E0      		ldi r23,hi8(.LC1)
 228 00d6 80E0      		ldi r24,lo8(UART)
 229 00d8 90E0      		ldi r25,hi8(UART)
 230 00da 0E94 0000 		call _ZN5USART9UsartPutsEPc
 231               	.LVL17:
  58:main.cpp      **** 		sendmsg_LED.data[1] = (UART.UsartGetc()-0x30);
 232               		.loc 1 58 3 is_stmt 1 discriminator 1 view .LVU64
 233               		.loc 1 58 40 is_stmt 0 discriminator 1 view .LVU65
 234 00de 80E0      		ldi r24,lo8(UART)
 235 00e0 90E0      		ldi r25,hi8(UART)
 236 00e2 0E94 0000 		call _ZN5USART9UsartGetcEv
 237               	.LVL18:
 238               		.loc 1 58 42 discriminator 1 view .LVU66
 239 00e6 8053      		subi r24,lo8(-(-48))
 240               		.loc 1 58 23 discriminator 1 view .LVU67
 241 00e8 8A83      		std Y+2,r24
  59:main.cpp      **** 		// Prüfung auf Gültigkeit fehlt nur 0-7
  60:main.cpp      **** 		can.CAN_Send(&sendmsg_LED);
 242               		.loc 1 60 3 is_stmt 1 discriminator 1 view .LVU68
 243               		.loc 1 60 15 is_stmt 0 discriminator 1 view .LVU69
 244 00ea BE01      		movw r22,r28
 245 00ec 6F5F      		subi r22,-1
 246 00ee 7F4F      		sbci r23,-1
 247 00f0 80E0      		ldi r24,lo8(can)
 248 00f2 90E0      		ldi r25,hi8(can)
 249 00f4 0E94 0000 		call _ZN3CAN8CAN_SendEP7CAN_MSG
 250               	.LVL19:
  61:main.cpp      **** 		_delay_ms(100);
 251               		.loc 1 61 3 is_stmt 1 discriminator 1 view .LVU70
 252               	.LBB33:
 253               	.LBI33:
 166:/opt/homebrew/Cellar/avr-gcc@9/9.3.0_3/avr/include/util/delay.h **** {
 254               		.loc 2 166 1 discriminator 1 view .LVU71
 255               	.LBB34:
 168:/opt/homebrew/Cellar/avr-gcc@9/9.3.0_3/avr/include/util/delay.h **** #if __HAS_DELAY_CYCLES && defined(__OPTIMIZE__) && \
 256               		.loc 2 168 2 discriminator 1 view .LVU72
 172:/opt/homebrew/Cellar/avr-gcc@9/9.3.0_3/avr/include/util/delay.h **** 	extern void __builtin_avr_delay_cycles(unsigned long);
 257               		.loc 2 172 2 discriminator 1 view .LVU73
 173:/opt/homebrew/Cellar/avr-gcc@9/9.3.0_3/avr/include/util/delay.h **** 	__tmp = ((F_CPU) / 1e3) * __ms;
 258               		.loc 2 173 2 discriminator 1 view .LVU74
 174:/opt/homebrew/Cellar/avr-gcc@9/9.3.0_3/avr/include/util/delay.h **** 
 259               		.loc 2 174 2 discriminator 1 view .LVU75
 184:/opt/homebrew/Cellar/avr-gcc@9/9.3.0_3/avr/include/util/delay.h **** 	#endif
 260               		.loc 2 184 3 discriminator 1 view .LVU76
 261               		.loc 2 187 2 discriminator 1 view .LVU77
 262               		.loc 2 187 28 is_stmt 0 discriminator 1 view .LVU78
 263 00f8 9FEF      		ldi r25,lo8(319999)
 264 00fa 21EE      		ldi r18,hi8(319999)
 265 00fc 34E0      		ldi r19,hlo8(319999)
 266 00fe 9150      	1:	subi r25,1
 267 0100 2040      		sbci r18,0
 268 0102 3040      		sbci r19,0
 269 0104 01F4      		brne 1b
 270 0106 00C0      		rjmp .
 271 0108 0000      		nop
 272 010a 00C0      		rjmp .L2
 273               	.LBE34:
 274               	.LBE33:
 275               		.cfi_endproc
 276               	.LFE15:
 278               		.text
 279               	.global	__vector_10
 281               	__vector_10:
 282               	.LFB16:
  62:main.cpp      **** 		
  63:main.cpp      **** 		
  64:main.cpp      **** 	}
  65:main.cpp      **** 	return 0;
  66:main.cpp      **** }
  67:main.cpp      **** 
  68:main.cpp      **** 
  69:main.cpp      **** // Compare " Vergleichsregister" Interrupt
  70:main.cpp      **** //------------------------------------------------------------------------------
  71:main.cpp      **** //  Interrupt Service Routinen
  72:main.cpp      **** //------------------------------------------------------------------------------
  73:main.cpp      **** // Interrupt-Service-Routine für den Interrupt bei Überlauf des Timer0
  74:main.cpp      **** // ISR: Schlüsselwort für Compiler, dass dies eine ISR ist
  75:main.cpp      **** // TIMER0_COMP_vect: Information an den Compiler, mit welchem Interrupt
  76:main.cpp      **** //                  diese ISR verknüpft werden soll. Der Bezeichner "TIMER0_COM_vect"
  77:main.cpp      **** //                  ist wie alle anderen ISR-Bezeichner in "avr/interrupt.h" definiert.
  78:main.cpp      **** ISR(TIMER0_COMP_vect)
  79:main.cpp      **** {
 283               		.loc 1 79 1 is_stmt 1 view -0
 284               		.cfi_startproc
 285 0000 1F92      		push r1
 286               	.LCFI2:
 287               		.cfi_def_cfa_offset 3
 288               		.cfi_offset 1, -2
 289 0002 0F92      		push r0
 290               	.LCFI3:
 291               		.cfi_def_cfa_offset 4
 292               		.cfi_offset 0, -3
 293 0004 0FB6      		in r0,__SREG__
 294 0006 0F92      		push r0
 295 0008 1124      		clr __zero_reg__
 296 000a 2F93      		push r18
 297               	.LCFI4:
 298               		.cfi_def_cfa_offset 5
 299               		.cfi_offset 18, -4
 300 000c 3F93      		push r19
 301               	.LCFI5:
 302               		.cfi_def_cfa_offset 6
 303               		.cfi_offset 19, -5
 304 000e 4F93      		push r20
 305               	.LCFI6:
 306               		.cfi_def_cfa_offset 7
 307               		.cfi_offset 20, -6
 308 0010 5F93      		push r21
 309               	.LCFI7:
 310               		.cfi_def_cfa_offset 8
 311               		.cfi_offset 21, -7
 312 0012 6F93      		push r22
 313               	.LCFI8:
 314               		.cfi_def_cfa_offset 9
 315               		.cfi_offset 22, -8
 316 0014 7F93      		push r23
 317               	.LCFI9:
 318               		.cfi_def_cfa_offset 10
 319               		.cfi_offset 23, -9
 320 0016 8F93      		push r24
 321               	.LCFI10:
 322               		.cfi_def_cfa_offset 11
 323               		.cfi_offset 24, -10
 324 0018 9F93      		push r25
 325               	.LCFI11:
 326               		.cfi_def_cfa_offset 12
 327               		.cfi_offset 25, -11
 328 001a AF93      		push r26
 329               	.LCFI12:
 330               		.cfi_def_cfa_offset 13
 331               		.cfi_offset 26, -12
 332 001c BF93      		push r27
 333               	.LCFI13:
 334               		.cfi_def_cfa_offset 14
 335               		.cfi_offset 27, -13
 336 001e EF93      		push r30
 337               	.LCFI14:
 338               		.cfi_def_cfa_offset 15
 339               		.cfi_offset 30, -14
 340 0020 FF93      		push r31
 341               	.LCFI15:
 342               		.cfi_def_cfa_offset 16
 343               		.cfi_offset 31, -15
 344               	/* prologue: Signal */
 345               	/* frame size = 0 */
 346               	/* stack size = 15 */
 347               	.L__stack_usage = 15
  80:main.cpp      **** 	cnt++;
 348               		.loc 1 80 2 view .LVU80
 349               		.loc 1 80 5 is_stmt 0 view .LVU81
 350 0022 8091 0000 		lds r24,cnt
 351 0026 8F5F      		subi r24,lo8(-(1))
 352 0028 8093 0000 		sts cnt,r24
  81:main.cpp      **** 	//can.CAN_Rec(&resvmsg);
  82:main.cpp      **** 	if(resvmsg.data[0]== adress) // Ist die Botschaft für dieses Board ?
 353               		.loc 1 82 2 is_stmt 1 view .LVU82
 354 002c 8091 0000 		lds r24,resvmsg
 355 0030 8230      		cpi r24,lo8(2)
 356 0032 01F4      		brne .L4
  83:main.cpp      **** 	{
  84:main.cpp      **** 		TGL_BIT(PORTC,resvmsg.data[1]);  // Byte 1 auf die LEDs ausgeben ( umgekehrte Logik)
 357               		.loc 1 84 3 view .LVU83
 358 0034 85B3      		in r24,0x15
 359 0036 9091 0000 		lds r25,resvmsg+1
 360 003a 21E0      		ldi r18,lo8(1)
 361 003c 30E0      		ldi r19,0
 362 003e 00C0      		rjmp 2f
 363               		1:
 364 0040 220F      		lsl r18
 365               		2:
 366 0042 9A95      		dec r25
 367 0044 02F4      		brpl 1b
 368 0046 8227      		eor r24,r18
 369 0048 85BB      		out 0x15,r24
 370               	.L4:
  85:main.cpp      **** 	}
  86:main.cpp      **** 	
  87:main.cpp      **** 	
  88:main.cpp      **** 	
  89:main.cpp      **** 	
  90:main.cpp      **** 	if((cnt==250)) // 25 x 1ms = 250ms  (Alle 250ms wird die Button Botschaft gesendet
 371               		.loc 1 90 2 view .LVU84
 372 004a 8091 0000 		lds r24,cnt
 373 004e 8A3F      		cpi r24,lo8(-6)
 374 0050 01F4      		brne .L3
  91:main.cpp      **** 	{
  92:main.cpp      **** 	
  93:main.cpp      **** 	sendmsg_Button.id = 0x75;          // ID setzen, hier: dec
 375               		.loc 1 93 2 view .LVU85
 376               		.loc 1 93 20 is_stmt 0 view .LVU86
 377 0052 85E7      		ldi r24,lo8(117)
 378 0054 90E0      		ldi r25,0
 379 0056 9093 0000 		sts sendmsg_Button+8+1,r25
 380 005a 8093 0000 		sts sendmsg_Button+8,r24
  94:main.cpp      ****     sendmsg_Button.dlc = 2;         // Länge der Nachricht: 2 Byte
 381               		.loc 1 94 5 is_stmt 1 view .LVU87
 382               		.loc 1 94 24 is_stmt 0 view .LVU88
 383 005e 82E0      		ldi r24,lo8(2)
 384 0060 8093 0000 		sts sendmsg_Button+10,r24
  95:main.cpp      **** 	sendmsg_Button.data[0]= adress;     // Datenbyte 0 füllen
 385               		.loc 1 95 2 is_stmt 1 view .LVU89
 386               		.loc 1 95 24 is_stmt 0 view .LVU90
 387 0064 8093 0000 		sts sendmsg_Button,r24
  96:main.cpp      **** 	sendmsg_Button.data[1]=B.Button_read(); // Button Status in das Datenbyte 1 schreiben
 388               		.loc 1 96 2 is_stmt 1 view .LVU91
 389               		.loc 1 96 38 is_stmt 0 view .LVU92
 390 0068 80E0      		ldi r24,lo8(B)
 391 006a 90E0      		ldi r25,hi8(B)
 392 006c 0E94 0000 		call _ZN6Button11Button_readEv
 393               	.LVL20:
 394               		.loc 1 96 24 view .LVU93
 395 0070 8093 0000 		sts sendmsg_Button+1,r24
  97:main.cpp      **** 	can.CAN_Send(&sendmsg_Button);
 396               		.loc 1 97 2 is_stmt 1 view .LVU94
 397               		.loc 1 97 14 is_stmt 0 view .LVU95
 398 0074 60E0      		ldi r22,lo8(sendmsg_Button)
 399 0076 70E0      		ldi r23,hi8(sendmsg_Button)
 400 0078 80E0      		ldi r24,lo8(can)
 401 007a 90E0      		ldi r25,hi8(can)
 402 007c 0E94 0000 		call _ZN3CAN8CAN_SendEP7CAN_MSG
 403               	.LVL21:
 404               	.L3:
 405               	/* epilogue start */
  98:main.cpp      **** 		
  99:main.cpp      **** 	
 100:main.cpp      **** 		}
 101:main.cpp      **** 	
 102:main.cpp      ****  
 103:main.cpp      ****  }
 406               		.loc 1 103 2 view .LVU96
 407 0080 FF91      		pop r31
 408 0082 EF91      		pop r30
 409 0084 BF91      		pop r27
 410 0086 AF91      		pop r26
 411 0088 9F91      		pop r25
 412 008a 8F91      		pop r24
 413 008c 7F91      		pop r23
 414 008e 6F91      		pop r22
 415 0090 5F91      		pop r21
 416 0092 4F91      		pop r20
 417 0094 3F91      		pop r19
 418 0096 2F91      		pop r18
 419 0098 0F90      		pop r0
 420 009a 0FBE      		out __SREG__,r0
 421 009c 0F90      		pop r0
 422 009e 1F90      		pop r1
 423 00a0 1895      		reti
 424               		.cfi_endproc
 425               	.LFE16:
 427               		.section	.text.startup
 429               	_GLOBAL__sub_I_B:
 430               	.LFB18:
 431               		.loc 1 103 2 is_stmt 1 view -0
 432               		.cfi_startproc
 433 010c EF92      		push r14
 434               	.LCFI16:
 435               		.cfi_def_cfa_offset 3
 436               		.cfi_offset 14, -2
 437 010e FF92      		push r15
 438               	.LCFI17:
 439               		.cfi_def_cfa_offset 4
 440               		.cfi_offset 15, -3
 441 0110 0F93      		push r16
 442               	.LCFI18:
 443               		.cfi_def_cfa_offset 5
 444               		.cfi_offset 16, -4
 445 0112 1F93      		push r17
 446               	.LCFI19:
 447               		.cfi_def_cfa_offset 6
 448               		.cfi_offset 17, -5
 449               	/* prologue: function */
 450               	/* frame size = 0 */
 451               	/* stack size = 4 */
 452               	.L__stack_usage = 4
 453               	.LBB41:
 454               	.LBI41:
 455               		.loc 1 103 2 view .LVU98
 456               	.LVL22:
 457               	.LBB42:
  12:main.cpp      **** uint8_t cnt=0;
 458               		.loc 1 12 8 is_stmt 0 view .LVU99
 459 0114 80E0      		ldi r24,lo8(B)
 460 0116 90E0      		ldi r25,hi8(B)
 461 0118 0E94 0000 		call _ZN6ButtonC1Ev
 462               	.LVL23:
  15:main.cpp      **** CAN_MSG sendmsg_Button;		// Message-Objekt auf dem Stack anlegen
 463               		.loc 1 15 25 view .LVU100
 464 011c 66E0      		ldi r22,lo8(6)
 465 011e 80E0      		ldi r24,lo8(can)
 466 0120 90E0      		ldi r25,hi8(can)
 467 0122 0E94 0000 		call _ZN3CANC1E13can_bitrate_t
 468               	.LVL24:
 469               	.LBB43:
 470               	.LBI43:
 471               		.loc 3 42 8 is_stmt 1 view .LVU101
 472               	.LBB44:
 473 0126 1092 0000 		sts sendmsg_Button+11,__zero_reg__
 474               	.LVL25:
 475               		.loc 3 42 8 is_stmt 0 view .LVU102
 476               	.LBE44:
 477               	.LBE43:
 478               	.LBB45:
 479               	.LBI45:
 480               		.loc 3 42 8 is_stmt 1 view .LVU103
 481               	.LBB46:
 482 012a 1092 0000 		sts resvmsg+11,__zero_reg__
 483               	.LVL26:
 484               		.loc 3 42 8 is_stmt 0 view .LVU104
 485               	.LBE46:
 486               	.LBE45:
  19:main.cpp      **** char buffer[150];		// Buffer zur Zwschischenspeicherung von Zeichenketten
 487               		.loc 1 19 22 view .LVU105
 488 012e 10E8      		ldi r17,lo8(-128)
 489 0130 E12E      		mov r14,r17
 490 0132 15E2      		ldi r17,lo8(37)
 491 0134 F12E      		mov r15,r17
 492 0136 00E0      		ldi r16,0
 493 0138 10E0      		ldi r17,0
 494 013a 21E0      		ldi r18,lo8(1)
 495 013c 40E0      		ldi r20,0
 496 013e 68E0      		ldi r22,lo8(8)
 497 0140 80E0      		ldi r24,lo8(UART)
 498 0142 90E0      		ldi r25,hi8(UART)
 499 0144 0E94 0000 		call _ZN5USARTC1Ehhhm
 500               	.LVL27:
 501               	/* epilogue start */
  19:main.cpp      **** char buffer[150];		// Buffer zur Zwschischenspeicherung von Zeichenketten
 502               		.loc 1 19 22 view .LVU106
 503               	.LBE42:
 504               	.LBE41:
 505               		.loc 1 103 2 view .LVU107
 506 0148 1F91      		pop r17
 507 014a 0F91      		pop r16
 508 014c FF90      		pop r15
 509 014e EF90      		pop r14
 510 0150 0895      		ret
 511               		.cfi_endproc
 512               	.LFE18:
 514               		.global __do_global_ctors
 515               		.section .ctors,"a",@progbits
 516               		.p2align	1
 517 0000 0000      		.word	gs(_GLOBAL__sub_I_B)
 518               	.global	buffer
 519               		.section .bss
 522               	buffer:
 523 0000 0000 0000 		.zero	150
 523      0000 0000 
 523      0000 0000 
 523      0000 0000 
 523      0000 0000 
 524               	.global	UART
 527               	UART:
 528 0096 0000 0000 		.zero	7
 528      0000 00
 529               	.global	resvmsg
 532               	resvmsg:
 533 009d 0000 0000 		.zero	12
 533      0000 0000 
 533      0000 0000 
 534               	.global	sendmsg_Button
 537               	sendmsg_Button:
 538 00a9 0000 0000 		.zero	12
 538      0000 0000 
 538      0000 0000 
 539               	.global	can
 542               	can:
 543 00b5 0000      		.zero	2
 544               	.global	cnt
 547               	cnt:
 548 00b7 00        		.zero	1
 549               	.global	B
 552               	B:
 553 00b8 00        		.zero	1
 554               		.text
 555               	.Letext0:
 556               		.file 4 "/opt/homebrew/Cellar/avr-gcc@9/9.3.0_3/avr/include/stdint.h"
 557               		.file 5 "/opt/homebrew/Cellar/avr-gcc@9/9.3.0_3/lib/avr-gcc/9/gcc/avr/9.3.0/include/stddef.h"
 558               		.file 6 "/opt/homebrew/Cellar/avr-gcc@9/9.3.0_3/avr/include/stdio.h"
 559               		.file 7 "/opt/homebrew/Cellar/avr-gcc@9/9.3.0_3/avr/include/stdlib.h"
 560               		.file 8 "avr-can-lib/can.h"